; ModuleID = '43/565.c'
source_filename = "43/565.c"
target datalayout = "e-m:e-p270:32:32-p271:32:32-p272:64:64-i64:64-f80:128-n8:16:32:64-S128"
target triple = "x86_64-pc-linux-gnu"

@.str = private unnamed_addr constant [3 x i8] c"%d\00", align 1
@.str.1 = private unnamed_addr constant [7 x i8] c"%d %d\0A\00", align 1

; Function Attrs: noinline nounwind uwtable
define dso_local i32 @main() #0 {
  %1 = alloca i32, align 4
  %2 = alloca i32, align 4
  %3 = alloca i32, align 4
  %4 = alloca i32, align 4
  %5 = alloca i32, align 4
  %6 = alloca i32, align 4
  %7 = alloca i32, align 4
  %8 = alloca i32, align 4
  %9 = alloca i32, align 4
  %10 = alloca i32, align 4
  store i32 0, i32* %1, align 4
  %11 = call i32 (i8*, ...) @__isoc99_scanf(i8* getelementptr inbounds ([3 x i8], [3 x i8]* @.str, i64 0, i64 0), i32* %4)
  store i32 3, i32* %2, align 4
  br label %12

12:                                               ; preds = %77, %0
  %13 = load i32, i32* %2, align 4
  %14 = load i32, i32* %4, align 4
  %15 = sdiv i32 %14, 2
  %16 = icmp sle i32 %13, %15
  br i1 %16, label %17, label %80

17:                                               ; preds = %12
  %18 = load i32, i32* %2, align 4
  %19 = sitofp i32 %18 to double
  %20 = call double @sqrt(double %19) #3
  %21 = fptosi double %20 to i32
  store i32 %21, i32* %9, align 4
  store i32 2, i32* %5, align 4
  br label %22

22:                                               ; preds = %33, %17
  %23 = load i32, i32* %5, align 4
  %24 = load i32, i32* %9, align 4
  %25 = icmp sle i32 %23, %24
  br i1 %25, label %26, label %36

26:                                               ; preds = %22
  %27 = load i32, i32* %2, align 4
  %28 = load i32, i32* %5, align 4
  %29 = srem i32 %27, %28
  %30 = icmp eq i32 %29, 0
  br i1 %30, label %31, label %32

31:                                               ; preds = %26
  br label %36

32:                                               ; preds = %26
  br label %33

33:                                               ; preds = %32
  %34 = load i32, i32* %5, align 4
  %35 = add nsw i32 %34, 1
  store i32 %35, i32* %5, align 4
  br label %22

36:                                               ; preds = %31, %22
  %37 = load i32, i32* %5, align 4
  %38 = load i32, i32* %9, align 4
  %39 = add nsw i32 %38, 1
  %40 = icmp sge i32 %37, %39
  br i1 %40, label %41, label %76

41:                                               ; preds = %36
  %42 = load i32, i32* %4, align 4
  %43 = load i32, i32* %2, align 4
  %44 = sub nsw i32 %42, %43
  %45 = sitofp i32 %44 to double
  %46 = call double @sqrt(double %45) #3
  %47 = fptosi double %46 to i32
  store i32 %47, i32* %10, align 4
  store i32 2, i32* %6, align 4
  br label %48

48:                                               ; preds = %61, %41
  %49 = load i32, i32* %6, align 4
  %50 = load i32, i32* %10, align 4
  %51 = icmp sle i32 %49, %50
  br i1 %51, label %52, label %64

52:                                               ; preds = %48
  %53 = load i32, i32* %4, align 4
  %54 = load i32, i32* %2, align 4
  %55 = sub nsw i32 %53, %54
  %56 = load i32, i32* %6, align 4
  %57 = srem i32 %55, %56
  %58 = icmp eq i32 %57, 0
  br i1 %58, label %59, label %60

59:                                               ; preds = %52
  br label %64

60:                                               ; preds = %52
  br label %61

61:                                               ; preds = %60
  %62 = load i32, i32* %6, align 4
  %63 = add nsw i32 %62, 1
  store i32 %63, i32* %6, align 4
  br label %48

64:                                               ; preds = %59, %48
  %65 = load i32, i32* %6, align 4
  %66 = load i32, i32* %10, align 4
  %67 = add nsw i32 %66, 1
  %68 = icmp sge i32 %65, %67
  br i1 %68, label %69, label %75

69:                                               ; preds = %64
  %70 = load i32, i32* %2, align 4
  %71 = load i32, i32* %4, align 4
  %72 = load i32, i32* %2, align 4
  %73 = sub nsw i32 %71, %72
  %74 = call i32 (i8*, ...) @printf(i8* getelementptr inbounds ([7 x i8], [7 x i8]* @.str.1, i64 0, i64 0), i32 %70, i32 %73)
  br label %75

75:                                               ; preds = %69, %64
  br label %76

76:                                               ; preds = %75, %36
  br label %77

77:                                               ; preds = %76
  %78 = load i32, i32* %2, align 4
  %79 = add nsw i32 %78, 1
  store i32 %79, i32* %2, align 4
  br label %12

80:                                               ; preds = %12
  %81 = load i32, i32* %1, align 4
  ret i32 %81
}

declare dso_local i32 @__isoc99_scanf(i8*, ...) #1

; Function Attrs: nounwind
declare dso_local double @sqrt(double) #2

declare dso_local i32 @printf(i8*, ...) #1


!llvm.module.flags = !{!0}
!llvm.ident = !{!1}

!0 = !{i32 1, !"wchar_size", i32 4}
!1 = !{!"clang version 10.0.0-4ubuntu1 "}
